target datalayout = "e-m:e-p270:32:32-p271:32:32-p272:64:64-i64:64-i128:128-f80:128-n8:16:32:64-S128"
target triple = "x86_64-unknown-linux-gnu"

%struct.asn1_const_ctx_st = type { ptr, i32, i32, i32, i32, i32, i64, ptr, ptr, ptr, i32 }

; Function Attrs: nounwind uwtable
define internal i32 @_asn1_check_infinite_end(ptr noundef %p, i64 noundef %len) #0 {
entry:
  %retval = alloca i32, align 4
  %p.addr = alloca ptr, align 8
  %len.addr = alloca i64, align 8
  store ptr %p, ptr %p.addr, align 8
  store i64 %len, ptr %len.addr, align 8
  %0 = load i64, ptr %len.addr, align 8
  %cmp = icmp sle i64 %0, 0
  br i1 %cmp, label %if.then, label %if.else

if.then:                                          ; preds = %entry
  store i32 1, ptr %retval, align 4
  br label %return

if.else:                                          ; preds = %entry
  %1 = load i64, ptr %len.addr, align 8
  %cmp1 = icmp sge i64 %1, 2
  br i1 %cmp1, label %land.lhs.true, label %if.end

land.lhs.true:                                    ; preds = %if.else
  %2 = load ptr, ptr %p.addr, align 8
  %3 = load ptr, ptr %2, align 8
  %arrayidx = getelementptr inbounds i8, ptr %3, i64 0
  %4 = load i8, ptr %arrayidx, align 1
  %conv = zext i8 %4 to i32
  %cmp2 = icmp eq i32 %conv, 0
  br i1 %cmp2, label %land.lhs.true4, label %if.end

land.lhs.true4:                                   ; preds = %land.lhs.true
  %5 = load ptr, ptr %p.addr, align 8
  %6 = load ptr, ptr %5, align 8
  %arrayidx5 = getelementptr inbounds i8, ptr %6, i64 1
  %7 = load i8, ptr %arrayidx5, align 1
  %conv6 = zext i8 %7 to i32
  %cmp7 = icmp eq i32 %conv6, 0
  br i1 %cmp7, label %if.then9, label %if.end

if.then9:                                         ; preds = %land.lhs.true4
  %8 = load ptr, ptr %p.addr, align 8
  %9 = load ptr, ptr %8, align 8
  %add.ptr = getelementptr inbounds i8, ptr %9, i64 2
  store ptr %add.ptr, ptr %8, align 8
  store i32 1, ptr %retval, align 4
  br label %return

if.end:                                           ; preds = %land.lhs.true4, %land.lhs.true, %if.else
  br label %if.end10

if.end10:                                         ; preds = %if.end
  store i32 0, ptr %retval, align 4
  br label %return

return:                                           ; preds = %if.end10, %if.then9, %if.then
  %10 = load i32, ptr %retval, align 4
  ret i32 %10
}

; Function Attrs: nounwind uwtable
define hidden i32 @ASN1_const_check_infinite_end(ptr noundef %p, i64 noundef %len) #0 {
entry:
  %p.addr = alloca ptr, align 8
  %len.addr = alloca i64, align 8
  store ptr %p, ptr %p.addr, align 8
  store i64 %len, ptr %len.addr, align 8
  %0 = load ptr, ptr %p.addr, align 8
  %1 = load i64, ptr %len.addr, align 8
  %call = call i32 @_asn1_check_infinite_end(ptr noundef %0, i64 noundef %1)
  ret i32 %call
}

; Function Attrs: nounwind uwtable
define internal i32 @_asn1_Finish(ptr noundef %c) #0 {
entry:
  %retval = alloca i32, align 4
  %c.addr = alloca ptr, align 8
  store ptr %c, ptr %c.addr, align 8
  %0 = load ptr, ptr %c.addr, align 8
  %inf = getelementptr inbounds %struct.asn1_const_ctx_st, ptr %0, i32 0, i32 3
  %1 = load i32, ptr %inf, align 8
  %cmp = icmp eq i32 %1, 33
  br i1 %cmp, label %land.lhs.true, label %if.end3

land.lhs.true:                                    ; preds = %entry
  %2 = load ptr, ptr %c.addr, align 8
  %eos = getelementptr inbounds %struct.asn1_const_ctx_st, ptr %2, i32 0, i32 1
  %3 = load i32, ptr %eos, align 8
  %tobool = icmp ne i32 %3, 0
  br i1 %tobool, label %if.end3, label %if.then

if.then:                                          ; preds = %land.lhs.true
  %4 = load ptr, ptr %c.addr, align 8
  %p = getelementptr inbounds %struct.asn1_const_ctx_st, ptr %4, i32 0, i32 0
  %5 = load ptr, ptr %c.addr, align 8
  %slen = getelementptr inbounds %struct.asn1_const_ctx_st, ptr %5, i32 0, i32 6
  %6 = load i64, ptr %slen, align 8
  %call = call i32 @ASN1_const_check_infinite_end(ptr noundef %p, i64 noundef %6)
  %tobool1 = icmp ne i32 %call, 0
  br i1 %tobool1, label %if.end, label %if.then2

if.then2:                                         ; preds = %if.then
  %7 = load ptr, ptr %c.addr, align 8
  %error = getelementptr inbounds %struct.asn1_const_ctx_st, ptr %7, i32 0, i32 2
  store i32 152, ptr %error, align 4
  store i32 0, ptr %retval, align 4
  br label %return

if.end:                                           ; preds = %if.then
  br label %if.end3

if.end3:                                          ; preds = %if.end, %land.lhs.true, %entry
  %8 = load ptr, ptr %c.addr, align 8
  %slen4 = getelementptr inbounds %struct.asn1_const_ctx_st, ptr %8, i32 0, i32 6
  %9 = load i64, ptr %slen4, align 8
  %cmp5 = icmp ne i64 %9, 0
  br i1 %cmp5, label %land.lhs.true6, label %lor.lhs.false

land.lhs.true6:                                   ; preds = %if.end3
  %10 = load ptr, ptr %c.addr, align 8
  %inf7 = getelementptr inbounds %struct.asn1_const_ctx_st, ptr %10, i32 0, i32 3
  %11 = load i32, ptr %inf7, align 8
  %and = and i32 %11, 1
  %tobool8 = icmp ne i32 %and, 0
  br i1 %tobool8, label %lor.lhs.false, label %if.then15

lor.lhs.false:                                    ; preds = %land.lhs.true6, %if.end3
  %12 = load ptr, ptr %c.addr, align 8
  %slen9 = getelementptr inbounds %struct.asn1_const_ctx_st, ptr %12, i32 0, i32 6
  %13 = load i64, ptr %slen9, align 8
  %cmp10 = icmp slt i64 %13, 0
  br i1 %cmp10, label %land.lhs.true11, label %if.end17

land.lhs.true11:                                  ; preds = %lor.lhs.false
  %14 = load ptr, ptr %c.addr, align 8
  %inf12 = getelementptr inbounds %struct.asn1_const_ctx_st, ptr %14, i32 0, i32 3
  %15 = load i32, ptr %inf12, align 8
  %and13 = and i32 %15, 1
  %tobool14 = icmp ne i32 %and13, 0
  br i1 %tobool14, label %if.then15, label %if.end17

if.then15:                                        ; preds = %land.lhs.true11, %land.lhs.true6
  %16 = load ptr, ptr %c.addr, align 8
  %error16 = getelementptr inbounds %struct.asn1_const_ctx_st, ptr %16, i32 0, i32 2
  store i32 100, ptr %error16, align 4
  store i32 0, ptr %retval, align 4
  br label %return

if.end17:                                         ; preds = %land.lhs.true11, %lor.lhs.false
  store i32 1, ptr %retval, align 4
  br label %return

return:                                           ; preds = %if.end17, %if.then15, %if.then2
  %17 = load i32, ptr %retval, align 4
  ret i32 %17
}

; Function Attrs: nounwind uwtable
define hidden i32 @asn1_Finish(ptr noundef %c) #0 {
entry:
  %c.addr = alloca ptr, align 8
  store ptr %c, ptr %c.addr, align 8
  %0 = load ptr, ptr %c.addr, align 8
  %call = call i32 @_asn1_Finish(ptr noundef %0)
  ret i32 %call
}